; Function Attrs: mustprogress nofree norecurse nosync nounwind willreturn memory(readwrite, inaccessiblemem: none) uwtable
define dso_local void @_ZN30btKinematicCharacterController4warpERK9btVector3(ptr nocapture noundef nonnull readonly align 8 dereferenceable(319) %this, ptr nocapture noundef nonnull readonly align 4 dereferenceable(16) %origin) unnamed_addr #14 align 2 {
entry:
  %xform.sroa.8.sroa.2 = alloca [16 x i8], align 4
  call void @llvm.memcpy.p0.p0.i64(ptr noundef nonnull align 4 dereferenceable(16) %xform.sroa.8.sroa.2, ptr noundef nonnull align 4 dereferenceable(16) %origin, i64 16, i1 false)
  %m_ghostObject = getelementptr inbounds i8, ptr %this, i64 16
  %0 = load ptr, ptr %m_ghostObject, align 8
  %m_updateRevision.i = getelementptr inbounds i8, ptr %0, i64 352
  %1 = load i32, ptr %m_updateRevision.i, align 8
  %inc.i = add nsw i32 %1, 1
  store i32 %inc.i, ptr %m_updateRevision.i, align 8
  %m_worldTransform.i = getelementptr inbounds i8, ptr %0, i64 8
  store float 1.000000e+00, ptr %m_worldTransform.i, align 8
  %xform.sroa.2.0.m_worldTransform.i.sroa_idx = getelementptr inbounds i8, ptr %0, i64 12
  %xform.sroa.4.16.arrayidx7.i.i.i.sroa_idx = getelementptr inbounds i8, ptr %0, i64 28
  tail call void @llvm.memset.p0.i64(ptr noundef nonnull align 4 dereferenceable(16) %xform.sroa.2.0.m_worldTransform.i.sroa_idx, i8 0, i64 16, i1 false)
  store float 1.000000e+00, ptr %xform.sroa.4.16.arrayidx7.i.i.i.sroa_idx, align 4
  %xform.sroa.5.16.arrayidx7.i.i.i.sroa_idx = getelementptr inbounds i8, ptr %0, i64 32
  %xform.sroa.7.32.arrayidx11.i.i.i.sroa_idx = getelementptr inbounds i8, ptr %0, i64 48
  tail call void @llvm.memset.p0.i64(ptr noundef nonnull align 8 dereferenceable(16) %xform.sroa.5.16.arrayidx7.i.i.i.sroa_idx, i8 0, i64 16, i1 false)
  store float 1.000000e+00, ptr %xform.sroa.7.32.arrayidx11.i.i.i.sroa_idx, align 8
  %xform.sroa.8.32.arrayidx11.i.i.i.sroa_idx = getelementptr inbounds i8, ptr %0, i64 52
  store i32 0, ptr %xform.sroa.8.32.arrayidx11.i.i.i.sroa_idx, align 4
  %m_origin3.i.i = getelementptr inbounds i8, ptr %0, i64 56
  call void @llvm.memcpy.p0.p0.i64(ptr noundef nonnull align 8 dereferenceable(16) %m_origin3.i.i, ptr noundef nonnull align 4 dereferenceable(16) %xform.sroa.8.sroa.2, i64 16, i1 false)
  ret void
}